; ModuleID = 'source-C-CXX/16/1186.c'
source_filename = "source-C-CXX/16/1186.c"
target datalayout = "e-m:e-p270:32:32-p271:32:32-p272:64:64-i64:64-f80:128-n8:16:32:64-S128"
target triple = "x86_64-pc-linux-gnu"

@.str = private unnamed_addr constant [3 x i8] c"%d\00", align 1
@.str.1 = private unnamed_addr constant [3 x i8] c"%s\00", align 1

; Function Attrs: nofree nounwind sspstrong uwtable
define dso_local i32 @main() local_unnamed_addr #0 {
  %1 = alloca i32, align 4
  %2 = alloca [102 x i8], align 16
  %3 = bitcast i32* %1 to i8*
  call void @llvm.lifetime.start.p0i8(i64 4, i8* nonnull %3) #5
  %4 = getelementptr inbounds [102 x i8], [102 x i8]* %2, i64 0, i64 0
  call void @llvm.lifetime.start.p0i8(i64 102, i8* nonnull %4) #5
  %5 = call i32 (i8*, ...) @__isoc99_scanf(i8* getelementptr inbounds ([3 x i8], [3 x i8]* @.str, i64 0, i64 0), i32* nonnull %1)
  %6 = load i32, i32* %1, align 4, !tbaa !5
  %7 = icmp sgt i32 %6, 0
  br i1 %7, label %8, label %190

8:                                                ; preds = %0, %185
  %9 = phi i32 [ %187, %185 ], [ 0, %0 ]
  %10 = call i32 (i8*, ...) @__isoc99_scanf(i8* getelementptr inbounds ([3 x i8], [3 x i8]* @.str.1, i64 0, i64 0), [102 x i8]* nonnull %2)
  %11 = call i64 @strlen(i8* noundef nonnull %4) #6
  %12 = trunc i64 %11 to i32
  %13 = call i32 @puts(i8* nonnull %4)
  %14 = icmp sgt i32 %12, 0
  br i1 %14, label %15, label %185

15:                                               ; preds = %8
  %16 = and i64 %11, 4294967295
  %17 = icmp ult i64 %16, 16
  br i1 %17, label %115, label %18

18:                                               ; preds = %15
  %19 = and i64 %11, 15
  %20 = sub nsw i64 %16, %19
  br label %21

21:                                               ; preds = %110, %18
  %22 = phi i64 [ 0, %18 ], [ %111, %110 ]
  %23 = getelementptr inbounds [102 x i8], [102 x i8]* %2, i64 0, i64 %22
  %24 = bitcast i8* %23 to <8 x i8>*
  %25 = load <8 x i8>, <8 x i8>* %24, align 16, !tbaa !9
  %26 = getelementptr inbounds i8, i8* %23, i64 8
  %27 = bitcast i8* %26 to <8 x i8>*
  %28 = load <8 x i8>, <8 x i8>* %27, align 8, !tbaa !9
  %29 = and <8 x i8> %25, <i8 -2, i8 -2, i8 -2, i8 -2, i8 -2, i8 -2, i8 -2, i8 -2>
  %30 = and <8 x i8> %28, <i8 -2, i8 -2, i8 -2, i8 -2, i8 -2, i8 -2, i8 -2, i8 -2>
  %31 = icmp ne <8 x i8> %29, <i8 40, i8 40, i8 40, i8 40, i8 40, i8 40, i8 40, i8 40>
  %32 = icmp ne <8 x i8> %30, <i8 40, i8 40, i8 40, i8 40, i8 40, i8 40, i8 40, i8 40>
  %33 = extractelement <8 x i1> %31, i32 0
  br i1 %33, label %34, label %35

34:                                               ; preds = %21
  store i8 32, i8* %23, align 16, !tbaa !9
  br label %35

35:                                               ; preds = %34, %21
  %36 = extractelement <8 x i1> %31, i32 1
  br i1 %36, label %37, label %40

37:                                               ; preds = %35
  %38 = or i64 %22, 1
  %39 = getelementptr inbounds [102 x i8], [102 x i8]* %2, i64 0, i64 %38
  store i8 32, i8* %39, align 1, !tbaa !9
  br label %40

40:                                               ; preds = %37, %35
  %41 = extractelement <8 x i1> %31, i32 2
  br i1 %41, label %42, label %45

42:                                               ; preds = %40
  %43 = or i64 %22, 2
  %44 = getelementptr inbounds [102 x i8], [102 x i8]* %2, i64 0, i64 %43
  store i8 32, i8* %44, align 2, !tbaa !9
  br label %45

45:                                               ; preds = %42, %40
  %46 = extractelement <8 x i1> %31, i32 3
  br i1 %46, label %47, label %50

47:                                               ; preds = %45
  %48 = or i64 %22, 3
  %49 = getelementptr inbounds [102 x i8], [102 x i8]* %2, i64 0, i64 %48
  store i8 32, i8* %49, align 1, !tbaa !9
  br label %50

50:                                               ; preds = %47, %45
  %51 = extractelement <8 x i1> %31, i32 4
  br i1 %51, label %52, label %55

52:                                               ; preds = %50
  %53 = or i64 %22, 4
  %54 = getelementptr inbounds [102 x i8], [102 x i8]* %2, i64 0, i64 %53
  store i8 32, i8* %54, align 4, !tbaa !9
  br label %55

55:                                               ; preds = %52, %50
  %56 = extractelement <8 x i1> %31, i32 5
  br i1 %56, label %57, label %60

57:                                               ; preds = %55
  %58 = or i64 %22, 5
  %59 = getelementptr inbounds [102 x i8], [102 x i8]* %2, i64 0, i64 %58
  store i8 32, i8* %59, align 1, !tbaa !9
  br label %60

60:                                               ; preds = %57, %55
  %61 = extractelement <8 x i1> %31, i32 6
  br i1 %61, label %62, label %65

62:                                               ; preds = %60
  %63 = or i64 %22, 6
  %64 = getelementptr inbounds [102 x i8], [102 x i8]* %2, i64 0, i64 %63
  store i8 32, i8* %64, align 2, !tbaa !9
  br label %65

65:                                               ; preds = %62, %60
  %66 = extractelement <8 x i1> %31, i32 7
  br i1 %66, label %67, label %70

67:                                               ; preds = %65
  %68 = or i64 %22, 7
  %69 = getelementptr inbounds [102 x i8], [102 x i8]* %2, i64 0, i64 %68
  store i8 32, i8* %69, align 1, !tbaa !9
  br label %70

70:                                               ; preds = %67, %65
  %71 = extractelement <8 x i1> %32, i32 0
  br i1 %71, label %72, label %75

72:                                               ; preds = %70
  %73 = or i64 %22, 8
  %74 = getelementptr inbounds [102 x i8], [102 x i8]* %2, i64 0, i64 %73
  store i8 32, i8* %74, align 8, !tbaa !9
  br label %75

75:                                               ; preds = %72, %70
  %76 = extractelement <8 x i1> %32, i32 1
  br i1 %76, label %77, label %80

77:                                               ; preds = %75
  %78 = or i64 %22, 9
  %79 = getelementptr inbounds [102 x i8], [102 x i8]* %2, i64 0, i64 %78
  store i8 32, i8* %79, align 1, !tbaa !9
  br label %80

80:                                               ; preds = %77, %75
  %81 = extractelement <8 x i1> %32, i32 2
  br i1 %81, label %82, label %85

82:                                               ; preds = %80
  %83 = or i64 %22, 10
  %84 = getelementptr inbounds [102 x i8], [102 x i8]* %2, i64 0, i64 %83
  store i8 32, i8* %84, align 2, !tbaa !9
  br label %85

85:                                               ; preds = %82, %80
  %86 = extractelement <8 x i1> %32, i32 3
  br i1 %86, label %87, label %90

87:                                               ; preds = %85
  %88 = or i64 %22, 11
  %89 = getelementptr inbounds [102 x i8], [102 x i8]* %2, i64 0, i64 %88
  store i8 32, i8* %89, align 1, !tbaa !9
  br label %90

90:                                               ; preds = %87, %85
  %91 = extractelement <8 x i1> %32, i32 4
  br i1 %91, label %92, label %95

92:                                               ; preds = %90
  %93 = or i64 %22, 12
  %94 = getelementptr inbounds [102 x i8], [102 x i8]* %2, i64 0, i64 %93
  store i8 32, i8* %94, align 4, !tbaa !9
  br label %95

95:                                               ; preds = %92, %90
  %96 = extractelement <8 x i1> %32, i32 5
  br i1 %96, label %97, label %100

97:                                               ; preds = %95
  %98 = or i64 %22, 13
  %99 = getelementptr inbounds [102 x i8], [102 x i8]* %2, i64 0, i64 %98
  store i8 32, i8* %99, align 1, !tbaa !9
  br label %100

100:                                              ; preds = %97, %95
  %101 = extractelement <8 x i1> %32, i32 6
  br i1 %101, label %102, label %105

102:                                              ; preds = %100
  %103 = or i64 %22, 14
  %104 = getelementptr inbounds [102 x i8], [102 x i8]* %2, i64 0, i64 %103
  store i8 32, i8* %104, align 2, !tbaa !9
  br label %105

105:                                              ; preds = %102, %100
  %106 = extractelement <8 x i1> %32, i32 7
  br i1 %106, label %107, label %110

107:                                              ; preds = %105
  %108 = or i64 %22, 15
  %109 = getelementptr inbounds [102 x i8], [102 x i8]* %2, i64 0, i64 %108
  store i8 32, i8* %109, align 1, !tbaa !9
  br label %110

110:                                              ; preds = %107, %105
  %111 = add nuw i64 %22, 16
  %112 = icmp eq i64 %111, %20
  br i1 %112, label %113, label %21, !llvm.loop !10

113:                                              ; preds = %110
  %114 = icmp eq i64 %19, 0
  br i1 %114, label %117, label %115

115:                                              ; preds = %15, %113
  %116 = phi i64 [ 0, %15 ], [ %20, %113 ]
  br label %122

117:                                              ; preds = %129, %113
  br i1 %14, label %118, label %185

118:                                              ; preds = %117
  %119 = shl i64 %11, 32
  %120 = ashr exact i64 %119, 32
  %121 = and i64 %11, 4294967295
  br label %138

122:                                              ; preds = %115, %129
  %123 = phi i64 [ %130, %129 ], [ %116, %115 ]
  %124 = getelementptr inbounds [102 x i8], [102 x i8]* %2, i64 0, i64 %123
  %125 = load i8, i8* %124, align 1, !tbaa !9
  %126 = and i8 %125, -2
  %127 = icmp eq i8 %126, 40
  br i1 %127, label %129, label %128

128:                                              ; preds = %122
  store i8 32, i8* %124, align 1, !tbaa !9
  br label %129

129:                                              ; preds = %122, %128
  %130 = add nuw nsw i64 %123, 1
  %131 = icmp eq i64 %130, %16
  br i1 %131, label %117, label %122, !llvm.loop !13

132:                                              ; preds = %160
  br i1 %14, label %133, label %185

133:                                              ; preds = %132
  %134 = and i64 %11, 1
  %135 = icmp eq i64 %121, 1
  br i1 %135, label %176, label %136

136:                                              ; preds = %133
  %137 = sub nsw i64 %121, %134
  br label %164

138:                                              ; preds = %118, %160
  %139 = phi i64 [ %121, %118 ], [ %163, %160 ]
  %140 = phi i64 [ %120, %118 ], [ %162, %160 ]
  %141 = phi i32 [ %12, %118 ], [ %142, %160 ]
  %142 = add nsw i32 %141, -1
  %143 = zext i32 %142 to i64
  %144 = getelementptr inbounds [102 x i8], [102 x i8]* %2, i64 0, i64 %143
  %145 = load i8, i8* %144, align 1, !tbaa !9
  %146 = icmp eq i8 %145, 40
  %147 = icmp slt i64 %139, %120
  %148 = select i1 %146, i1 %147, i1 false
  br i1 %148, label %152, label %160

149:                                              ; preds = %152
  %150 = trunc i64 %157 to i32
  %151 = icmp eq i32 %150, %12
  br i1 %151, label %160, label %152, !llvm.loop !15

152:                                              ; preds = %138, %149
  %153 = phi i64 [ %157, %149 ], [ %140, %138 ]
  %154 = getelementptr inbounds [102 x i8], [102 x i8]* %2, i64 0, i64 %153
  %155 = load i8, i8* %154, align 1, !tbaa !9
  %156 = icmp eq i8 %155, 41
  %157 = add nsw i64 %153, 1
  br i1 %156, label %158, label %149

158:                                              ; preds = %152
  %159 = getelementptr inbounds [102 x i8], [102 x i8]* %2, i64 0, i64 %153
  store i8 32, i8* %144, align 1, !tbaa !9
  store i8 32, i8* %159, align 1, !tbaa !9
  br label %160

160:                                              ; preds = %149, %138, %158
  %161 = icmp sgt i64 %139, 1
  %162 = add nsw i64 %140, -1
  %163 = add nsw i64 %139, -1
  br i1 %161, label %138, label %132, !llvm.loop !16

164:                                              ; preds = %194, %136
  %165 = phi i64 [ 0, %136 ], [ %195, %194 ]
  %166 = phi i64 [ %137, %136 ], [ %196, %194 ]
  %167 = getelementptr inbounds [102 x i8], [102 x i8]* %2, i64 0, i64 %165
  %168 = load i8, i8* %167, align 2, !tbaa !9
  switch i8 %168, label %172 [
    i8 40, label %170
    i8 41, label %169
  ]

169:                                              ; preds = %164
  br label %170

170:                                              ; preds = %164, %169
  %171 = phi i8 [ 63, %169 ], [ 36, %164 ]
  store i8 %171, i8* %167, align 2, !tbaa !9
  br label %172

172:                                              ; preds = %170, %164
  %173 = or i64 %165, 1
  %174 = getelementptr inbounds [102 x i8], [102 x i8]* %2, i64 0, i64 %173
  %175 = load i8, i8* %174, align 1, !tbaa !9
  switch i8 %175, label %194 [
    i8 40, label %192
    i8 41, label %191
  ]

176:                                              ; preds = %194, %133
  %177 = phi i64 [ 0, %133 ], [ %195, %194 ]
  %178 = icmp eq i64 %134, 0
  br i1 %178, label %185, label %179

179:                                              ; preds = %176
  %180 = getelementptr inbounds [102 x i8], [102 x i8]* %2, i64 0, i64 %177
  %181 = load i8, i8* %180, align 1, !tbaa !9
  switch i8 %181, label %185 [
    i8 40, label %183
    i8 41, label %182
  ]

182:                                              ; preds = %179
  br label %183

183:                                              ; preds = %182, %179
  %184 = phi i8 [ 63, %182 ], [ 36, %179 ]
  store i8 %184, i8* %180, align 1, !tbaa !9
  br label %185

185:                                              ; preds = %176, %179, %183, %8, %117, %132
  %186 = call i32 @puts(i8* nonnull %4)
  %187 = add nuw nsw i32 %9, 1
  %188 = load i32, i32* %1, align 4, !tbaa !5
  %189 = icmp slt i32 %187, %188
  br i1 %189, label %8, label %190, !llvm.loop !17

190:                                              ; preds = %185, %0
  call void @llvm.lifetime.end.p0i8(i64 102, i8* nonnull %4) #5
  call void @llvm.lifetime.end.p0i8(i64 4, i8* nonnull %3) #5
  ret i32 0

191:                                              ; preds = %172
  br label %192

192:                                              ; preds = %191, %172
  %193 = phi i8 [ 63, %191 ], [ 36, %172 ]
  store i8 %193, i8* %174, align 1, !tbaa !9
  br label %194

194:                                              ; preds = %192, %172
  %195 = add nuw nsw i64 %165, 2
  %196 = add i64 %166, -2
  %197 = icmp eq i64 %196, 0
  br i1 %197, label %176, label %164, !llvm.loop !18
}

; Function Attrs: argmemonly mustprogress nofree nosync nounwind willreturn
declare void @llvm.lifetime.start.p0i8(i64 immarg, i8* nocapture) #1

; Function Attrs: nofree nounwind
declare noundef i32 @__isoc99_scanf(i8* nocapture noundef readonly, ...) local_unnamed_addr #2

; Function Attrs: argmemonly mustprogress nofree nounwind readonly willreturn
declare i64 @strlen(i8* nocapture) local_unnamed_addr #3

; Function Attrs: argmemonly mustprogress nofree nosync nounwind willreturn
declare void @llvm.lifetime.end.p0i8(i64 immarg, i8* nocapture) #1

; Function Attrs: nofree nounwind
declare noundef i32 @puts(i8* nocapture noundef readonly) local_unnamed_addr #4


!llvm.module.flags = !{!0, !1, !2, !3}
!llvm.ident = !{!4}

!0 = !{i32 1, !"wchar_size", i32 4}
!1 = !{i32 7, !"PIC Level", i32 2}
!2 = !{i32 7, !"PIE Level", i32 2}
!3 = !{i32 7, !"uwtable", i32 1}
!4 = !{!"clang version 13.0.0"}
!5 = !{!6, !6, i64 0}
!6 = !{!"int", !7, i64 0}
!7 = !{!"omnipotent char", !8, i64 0}
!8 = !{!"Simple C/C++ TBAA"}
!9 = !{!7, !7, i64 0}
!10 = distinct !{!10, !11, !12}
!11 = !{!"llvm.loop.mustprogress"}
!12 = !{!"llvm.loop.isvectorized", i32 1}
!13 = distinct !{!13, !11, !14, !12}
!14 = !{!"llvm.loop.unroll.runtime.disable"}
!15 = distinct !{!15, !11}
!16 = distinct !{!16, !11}
!17 = distinct !{!17, !11}
!18 = distinct !{!18, !11}
